ccopy_reg
_reconstructor
p0
(cmodels
Forecast
p1
c__builtin__
object
p2
Ntp3
Rp4
(dp5
S'pastTemps'
p6
(lp7
g0
(cmodels
ForecastTemp
p8
g2
Ntp9
Rp10
(dp11
S'high'
p12
I0
sS'temp'
p13
F-11.0
sbag0
(g8
g2
Ntp14
Rp15
(dp16
g12
I1
sg13
F-5.8
sbasS'hourly'
p17
(lp18
sS'daily'
p19
(lp20
g0
(cmodels
DailyForecast
p21
g2
Ntp22
Rp23
(dp24
g12
I-6
sS'winddir'
p25
I0
sS'windspeed'
p26
I21
sS'when'
p27
cdatetime
datetime
p28
(S'\x07\xe0\x01\x13\x01\x00\x00\x00\x00\x00'
p29
g0
(cdateutil.tz
tzutc
p30
cdatetime
tzinfo
p31
g31
(tRp32
tp33
Rp34
tp35
Rp36
sS'low'
p37
I-14
sbag0
(g21
g2
Ntp38
Rp39
(dp40
g12
I-2
sg25
I38
sg26
I8
sg27
g28
(S'\x07\xe0\x01\x14\x01\x00\x00\x00\x00\x00'
p41
g0
(g30
g31
g31
(tRp42
tp43
Rp44
tp45
Rp46
sg37
I-7
sbag0
(g21
g2
Ntp47
Rp48
(dp49
g12
I2
sg25
I203
sg26
I16
sg27
g28
(S'\x07\xe0\x01\x15\x01\x00\x00\x00\x00\x00'
p50
g0
(g30
g31
g31
(tRp51
tp52
Rp53
tp54
Rp55
sg37
I-1
sbag0
(g21
g2
Ntp56
Rp57
(dp58
g12
I6
sg25
I73
sg26
I16
sg27
g28
(S'\x07\xe0\x01\x16\x01\x00\x00\x00\x00\x00'
p59
g0
(g30
g31
g31
(tRp60
tp61
Rp62
tp63
Rp64
sg37
I1
sbag0
(g21
g2
Ntp65
Rp66
(dp67
g12
I3
sg25
I12
sg26
I32
sg27
g28
(S'\x07\xe0\x01\x17\x01\x00\x00\x00\x00\x00'
p68
g0
(g30
g31
g31
(tRp69
tp70
Rp71
tp72
Rp73
sg37
I-5
sbag0
(g21
g2
Ntp74
Rp75
(dp76
g12
I2
sg25
I323
sg26
I24
sg27
g28
(S'\x07\xe0\x01\x18\x01\x00\x00\x00\x00\x00'
p77
g0
(g30
g31
g31
(tRp78
tp79
Rp80
tp81
Rp82
sg37
I-6
sbag0
(g21
g2
Ntp83
Rp84
(dp85
g12
I8
sg25
I177
sg26
I16
sg27
g28
(S'\x07\xe0\x01\x19\x01\x00\x00\x00\x00\x00'
p86
g0
(g30
g31
g31
(tRp87
tp88
Rp89
tp90
Rp91
sg37
I2
sbag0
(g21
g2
Ntp92
Rp93
(dp94
g12
I9
sg25
I210
sg26
I24
sg27
g28
(S'\x07\xe0\x01\x1a\x01\x00\x00\x00\x00\x00'
p95
g0
(g30
g31
g31
(tRp96
tp97
Rp98
tp99
Rp100
sg37
I1
sbag0
(g21
g2
Ntp101
Rp102
(dp103
g12
I6
sg25
I333
sg26
I16
sg27
g28
(S'\x07\xe0\x01\x1b\x01\x00\x00\x00\x00\x00'
p104
g0
(g30
g31
g31
(tRp105
tp106
Rp107
tp108
Rp109
sg37
I-1
sbag0
(g21
g2
Ntp110
Rp111
(dp112
g12
I6
sg25
I342
sg26
I16
sg27
g28
(S'\x07\xe0\x01\x1c\x01\x00\x00\x00\x00\x00'
p113
g0
(g30
g31
g31
(tRp114
tp115
Rp116
tp117
Rp118
sg37
I-3
sbasS'futureTemps'
p119
(lp120
g0
(g8
g2
Ntp121
Rp122
(dp123
g12
I0
sg13
I-14
sbag0
(g8
g2
Ntp124
Rp125
(dp126
g12
I1
sg13
I-2
sbasb.